target datalayout = "e-m:e-p270:32:32-p271:32:32-p272:64:64-i64:64-i128:128-f80:128-n8:16:32:64-S128"
target triple = "x86_64-pc-linux-gnu"

%"class.Ipopt::SymTMatrix" = type <{ %"class.Ipopt::SymMatrix", ptr, ptr, i8, [7 x i8] }>
%"class.Ipopt::SymMatrix" = type { %"class.Ipopt::Matrix.base", ptr }
%"class.Ipopt::Matrix.base" = type <{ %"class.Ipopt::TaggedObject", %"class.Ipopt::SmartPtr", i32, i8 }>
%"class.Ipopt::TaggedObject" = type { %"class.Ipopt::ReferencedObject.base", %"class.Ipopt::Subject", i32, i32 }
%"class.Ipopt::ReferencedObject.base" = type <{ ptr, i32 }>
%"class.Ipopt::Subject" = type { ptr, %"class.std::vector" }
%"class.std::vector" = type { %"struct.std::_Vector_base" }
%"struct.std::_Vector_base" = type { %"struct.std::_Vector_base<Ipopt::Observer *, std::allocator<Ipopt::Observer *>>::_Vector_impl" }
%"struct.std::_Vector_base<Ipopt::Observer *, std::allocator<Ipopt::Observer *>>::_Vector_impl" = type { %"struct.std::_Vector_base<Ipopt::Observer *, std::allocator<Ipopt::Observer *>>::_Vector_impl_data" }
%"struct.std::_Vector_base<Ipopt::Observer *, std::allocator<Ipopt::Observer *>>::_Vector_impl_data" = type { ptr, ptr, ptr }
%"class.Ipopt::SmartPtr" = type { ptr }
%"class.Ipopt::SymTMatrixSpace" = type { %"class.Ipopt::SymMatrixSpace.base", i32, ptr, ptr }
%"class.Ipopt::SymMatrixSpace.base" = type { %"class.Ipopt::MatrixSpace.base" }
%"class.Ipopt::MatrixSpace.base" = type { %"class.Ipopt::ReferencedObject.base", i32, i32 }
%"class.Ipopt::MatrixSpace" = type { %"class.Ipopt::ReferencedObject.base", i32, i32, [4 x i8] }
%"class.std::__cxx11::basic_string" = type { %"struct.std::__cxx11::basic_string<char>::_Alloc_hider", i64, %union.anon }
%"struct.std::__cxx11::basic_string<char>::_Alloc_hider" = type { ptr }
%union.anon = type { i64, [8 x i8] }

@.str = private unnamed_addr constant [2 x i8] c"\0A\00", align 1
@.str.1 = private unnamed_addr constant [61 x i8] c"%sSymTMatrix \22%s\22 of dimension %d with %d nonzero elements:\0A\00", align 1
@.str.2 = private unnamed_addr constant [29 x i8] c"%s%s[%5d,%5d]=%23.16e  (%d)\0A\00", align 1
@.str.3 = private unnamed_addr constant [18 x i8] c"%sUninitialized!\0A\00", align 1

; Function Attrs: mustprogress nounwind uwtable
define linkonce_odr noundef i32 @_ZNK5Ipopt11MatrixSpace5NRowsEv(ptr noundef nonnull align 8 dereferenceable(20) %0) #2 comdat align 2 {
  %2 = alloca ptr, align 8
  store ptr %0, ptr %2, align 8, !tbaa !84
  %3 = load ptr, ptr %2, align 8
  %4 = getelementptr inbounds nuw %"class.Ipopt::MatrixSpace", ptr %3, i32 0, i32 1
  %5 = load i32, ptr %4, align 4, !tbaa !159
  ret i32 %5
}

; Function Attrs: mustprogress nounwind uwtable
define linkonce_odr noundef ptr @_ZNK5Ipopt15SymTMatrixSpace5JcolsEv(ptr noundef nonnull align 8 dereferenceable(40) %0) #2 comdat align 2 {
  %2 = alloca ptr, align 8
  store ptr %0, ptr %2, align 8, !tbaa !8
  %3 = load ptr, ptr %2, align 8
  %4 = getelementptr inbounds nuw %"class.Ipopt::SymTMatrixSpace", ptr %3, i32 0, i32 3
  %5 = load ptr, ptr %4, align 8, !tbaa !82
  ret ptr %5
}

; Function Attrs: mustprogress nounwind uwtable
define linkonce_odr noundef ptr @_ZNK5Ipopt15SymTMatrixSpace5IrowsEv(ptr noundef nonnull align 8 dereferenceable(40) %0) #2 comdat align 2 {
  %2 = alloca ptr, align 8
  store ptr %0, ptr %2, align 8, !tbaa !8
  %3 = load ptr, ptr %2, align 8
  %4 = getelementptr inbounds nuw %"class.Ipopt::SymTMatrixSpace", ptr %3, i32 0, i32 2
  %5 = load ptr, ptr %4, align 8, !tbaa !81
  ret ptr %5
}

; Function Attrs: mustprogress nounwind uwtable
define linkonce_odr noundef i32 @_ZNK5Ipopt15SymTMatrixSpace8NonzerosEv(ptr noundef nonnull align 8 dereferenceable(40) %0) #2 comdat align 2 {
  %2 = alloca ptr, align 8
  store ptr %0, ptr %2, align 8, !tbaa !8
  %3 = load ptr, ptr %2, align 8
  %4 = getelementptr inbounds nuw %"class.Ipopt::SymTMatrixSpace", ptr %3, i32 0, i32 1
  %5 = load i32, ptr %4, align 4, !tbaa !77
  ret i32 %5
}

; Function Attrs: mustprogress nounwind uwtable
define linkonce_odr noundef i32 @_ZNK5Ipopt14SymMatrixSpace3DimEv(ptr noundef nonnull align 8 dereferenceable(20) %0) #2 comdat align 2 {
  %2 = alloca ptr, align 8
  store ptr %0, ptr %2, align 8, !tbaa !35
  %3 = load ptr, ptr %2, align 8
  %4 = call noundef i32 @_ZNK5Ipopt11MatrixSpace5NRowsEv(ptr noundef nonnull align 8 dereferenceable(20) %3)
  ret i32 %4
}

; Function Attrs: noinline noreturn nounwind uwtable
define linkonce_odr hidden void @__clang_call_terminate(ptr noundef %0) #3 comdat {
  %2 = call ptr @__cxa_begin_catch(ptr %0) #13
  call void @_ZSt9terminatev() #15
  unreachable
}

; Function Attrs: mustprogress nounwind uwtable
define available_externally noundef ptr @_ZNKSt7__cxx1112basic_stringIcSt11char_traitsIcESaIcEE7_M_dataEv(ptr noundef nonnull align 8 dereferenceable(32) %0) #2 align 2 {
  %2 = alloca ptr, align 8
  store ptr %0, ptr %2, align 8, !tbaa !74
  %3 = load ptr, ptr %2, align 8
  %4 = getelementptr inbounds nuw %"class.std::__cxx11::basic_string", ptr %3, i32 0, i32 0
  %5 = getelementptr inbounds nuw %"struct.std::__cxx11::basic_string<char>::_Alloc_hider", ptr %4, i32 0, i32 0
  %6 = load ptr, ptr %5, align 8, !tbaa !161
  ret ptr %6
}

; Function Attrs: inlinehint mustprogress uwtable
define linkonce_odr noundef ptr @_ZNK5Ipopt10SymTMatrix5JcolsEv(ptr noundef nonnull align 8 dereferenceable(97) %0) #1 comdat align 2 {
  %2 = alloca ptr, align 8
  store ptr %0, ptr %2, align 8, !tbaa !3
  %3 = load ptr, ptr %2, align 8
  %4 = getelementptr inbounds nuw %"class.Ipopt::SymTMatrix", ptr %3, i32 0, i32 1
  %5 = load ptr, ptr %4, align 8, !tbaa !12
  %6 = call noundef ptr @_ZNK5Ipopt15SymTMatrixSpace5JcolsEv(ptr noundef nonnull align 8 dereferenceable(40) %5)
  ret ptr %6
}

; Function Attrs: inlinehint mustprogress uwtable
define linkonce_odr noundef ptr @_ZNK5Ipopt10SymTMatrix5IrowsEv(ptr noundef nonnull align 8 dereferenceable(97) %0) #1 comdat align 2 {
  %2 = alloca ptr, align 8
  store ptr %0, ptr %2, align 8, !tbaa !3
  %3 = load ptr, ptr %2, align 8
  %4 = getelementptr inbounds nuw %"class.Ipopt::SymTMatrix", ptr %3, i32 0, i32 1
  %5 = load ptr, ptr %4, align 8, !tbaa !12
  %6 = call noundef ptr @_ZNK5Ipopt15SymTMatrixSpace5IrowsEv(ptr noundef nonnull align 8 dereferenceable(40) %5)
  ret ptr %6
}

; Function Attrs: inlinehint mustprogress uwtable
define linkonce_odr noundef i32 @_ZNK5Ipopt10SymTMatrix8NonzerosEv(ptr noundef nonnull align 8 dereferenceable(97) %0) #1 comdat align 2 {
  %2 = alloca ptr, align 8
  store ptr %0, ptr %2, align 8, !tbaa !3
  %3 = load ptr, ptr %2, align 8
  %4 = getelementptr inbounds nuw %"class.Ipopt::SymTMatrix", ptr %3, i32 0, i32 1
  %5 = load ptr, ptr %4, align 8, !tbaa !12
  %6 = call noundef i32 @_ZNK5Ipopt15SymTMatrixSpace8NonzerosEv(ptr noundef nonnull align 8 dereferenceable(40) %5)
  ret i32 %6
}

; Function Attrs: inlinehint mustprogress uwtable
define linkonce_odr noundef i32 @_ZNK5Ipopt9SymMatrix3DimEv(ptr noundef nonnull align 8 dereferenceable(80) %0) #1 comdat align 2 {
  %2 = alloca ptr, align 8
  store ptr %0, ptr %2, align 8, !tbaa !33
  %3 = load ptr, ptr %2, align 8
  %4 = getelementptr inbounds nuw %"class.Ipopt::SymMatrix", ptr %3, i32 0, i32 1
  %5 = load ptr, ptr %4, align 8, !tbaa !36
  %6 = call noundef i32 @_ZNK5Ipopt14SymMatrixSpace3DimEv(ptr noundef nonnull align 8 dereferenceable(20) %5)
  ret i32 %6
}

; Function Attrs: mustprogress nounwind uwtable
define available_externally noundef ptr @_ZNKSt7__cxx1112basic_stringIcSt11char_traitsIcESaIcEE5c_strEv(ptr noundef nonnull align 8 dereferenceable(32) %0) #2 align 2 personality ptr @__gxx_personality_v0 {
  %2 = alloca ptr, align 8
  store ptr %0, ptr %2, align 8, !tbaa !74
  %3 = load ptr, ptr %2, align 8
  %4 = invoke noundef ptr @_ZNKSt7__cxx1112basic_stringIcSt11char_traitsIcESaIcEE7_M_dataEv(ptr noundef nonnull align 8 dereferenceable(32) %3)
          to label %5 unwind label %6

5:                                                ; preds = %1
  ret ptr %4

6:                                                ; preds = %1
  %7 = landingpad { ptr, i32 }
          catch ptr null
  %8 = extractvalue { ptr, i32 } %7, 0
  call void @__clang_call_terminate(ptr %8) #15
  unreachable
}

; Function Attrs: mustprogress uwtable
define void @_ZNK5Ipopt10SymTMatrix9PrintImplERKNS_10JournalistENS_13EJournalLevelENS_16EJournalCategoryERKNSt7__cxx1112basic_stringIcSt11char_traitsIcESaIcEEEiSD_(ptr noundef nonnull align 8 dereferenceable(97) %0, ptr noundef nonnull align 8 dereferenceable(40) %1, i32 noundef %2, i32 noundef %3, ptr noundef nonnull align 8 dereferenceable(32) %4, i32 noundef %5, ptr noundef nonnull align 8 dereferenceable(32) %6) unnamed_addr #0 align 2 {
  %8 = alloca ptr, align 8
  %9 = alloca ptr, align 8
  %10 = alloca i32, align 4
  %11 = alloca i32, align 4
  %12 = alloca ptr, align 8
  %13 = alloca i32, align 4
  %14 = alloca ptr, align 8
  %15 = alloca i32, align 4
  store ptr %0, ptr %8, align 8, !tbaa !3
  store ptr %1, ptr %9, align 8, !tbaa !68
  store i32 %2, ptr %10, align 4, !tbaa !70
  store i32 %3, ptr %11, align 4, !tbaa !72
  store ptr %4, ptr %12, align 8, !tbaa !74
  store i32 %5, ptr %13, align 4, !tbaa !46
  store ptr %6, ptr %14, align 8, !tbaa !74
  %16 = load ptr, ptr %8, align 8
  %17 = load ptr, ptr %9, align 8, !tbaa !68
  %18 = load i32, ptr %10, align 4, !tbaa !70
  %19 = load i32, ptr %11, align 4, !tbaa !72
  %20 = load ptr, ptr %17, align 8, !tbaa !10
  %21 = getelementptr inbounds ptr, ptr %20, i64 2
  %22 = load ptr, ptr %21, align 8
  call void (ptr, i32, i32, ptr, ...) %22(ptr noundef nonnull align 8 dereferenceable(40) %17, i32 noundef %18, i32 noundef %19, ptr noundef @.str)
  %23 = load ptr, ptr %9, align 8, !tbaa !68
  %24 = load i32, ptr %10, align 4, !tbaa !70
  %25 = load i32, ptr %11, align 4, !tbaa !72
  %26 = load i32, ptr %13, align 4, !tbaa !46
  %27 = load ptr, ptr %14, align 8, !tbaa !74
  %28 = call noundef ptr @_ZNKSt7__cxx1112basic_stringIcSt11char_traitsIcESaIcEE5c_strEv(ptr noundef nonnull align 8 dereferenceable(32) %27) #13
  %29 = load ptr, ptr %12, align 8, !tbaa !74
  %30 = call noundef ptr @_ZNKSt7__cxx1112basic_stringIcSt11char_traitsIcESaIcEE5c_strEv(ptr noundef nonnull align 8 dereferenceable(32) %29) #13
  %31 = call noundef i32 @_ZNK5Ipopt9SymMatrix3DimEv(ptr noundef nonnull align 8 dereferenceable(80) %16)
  %32 = call noundef i32 @_ZNK5Ipopt10SymTMatrix8NonzerosEv(ptr noundef nonnull align 8 dereferenceable(97) %16)
  %33 = load ptr, ptr %23, align 8, !tbaa !10
  %34 = getelementptr inbounds ptr, ptr %33, i64 4
  %35 = load ptr, ptr %34, align 8
  call void (ptr, i32, i32, i32, ptr, ...) %35(ptr noundef nonnull align 8 dereferenceable(40) %23, i32 noundef %24, i32 noundef %25, i32 noundef %26, ptr noundef @.str.1, ptr noundef %28, ptr noundef %30, i32 noundef %31, i32 noundef %32)
  %36 = getelementptr inbounds nuw %"class.Ipopt::SymTMatrix", ptr %16, i32 0, i32 3
  %37 = load i8, ptr %36, align 8, !tbaa !32, !range !58, !noundef !59
  %38 = trunc i8 %37 to i1
  br i1 %38, label %39, label %78

39:                                               ; preds = %7
  call void @llvm.lifetime.start.p0(i64 4, ptr %15) #13
  store i32 0, ptr %15, align 4, !tbaa !46
  br label %40

40:                                               ; preds = %74, %39
  %41 = load i32, ptr %15, align 4, !tbaa !46
  %42 = call noundef i32 @_ZNK5Ipopt10SymTMatrix8NonzerosEv(ptr noundef nonnull align 8 dereferenceable(97) %16)
  %43 = icmp slt i32 %41, %42
  br i1 %43, label %45, label %44

44:                                               ; preds = %40
  call void @llvm.lifetime.end.p0(i64 4, ptr %15) #13
  br label %77

45:                                               ; preds = %40
  %46 = load ptr, ptr %9, align 8, !tbaa !68
  %47 = load i32, ptr %10, align 4, !tbaa !70
  %48 = load i32, ptr %11, align 4, !tbaa !72
  %49 = load i32, ptr %13, align 4, !tbaa !46
  %50 = load ptr, ptr %14, align 8, !tbaa !74
  %51 = call noundef ptr @_ZNKSt7__cxx1112basic_stringIcSt11char_traitsIcESaIcEE5c_strEv(ptr noundef nonnull align 8 dereferenceable(32) %50) #13
  %52 = load ptr, ptr %12, align 8, !tbaa !74
  %53 = call noundef ptr @_ZNKSt7__cxx1112basic_stringIcSt11char_traitsIcESaIcEE5c_strEv(ptr noundef nonnull align 8 dereferenceable(32) %52) #13
  %54 = call noundef ptr @_ZNK5Ipopt10SymTMatrix5IrowsEv(ptr noundef nonnull align 8 dereferenceable(97) %16)
  %55 = load i32, ptr %15, align 4, !tbaa !46
  %56 = sext i32 %55 to i64
  %57 = getelementptr inbounds i32, ptr %54, i64 %56
  %58 = load i32, ptr %57, align 4, !tbaa !46
  %59 = call noundef ptr @_ZNK5Ipopt10SymTMatrix5JcolsEv(ptr noundef nonnull align 8 dereferenceable(97) %16)
  %60 = load i32, ptr %15, align 4, !tbaa !46
  %61 = sext i32 %60 to i64
  %62 = getelementptr inbounds i32, ptr %59, i64 %61
  %63 = load i32, ptr %62, align 4, !tbaa !46
  %64 = getelementptr inbounds nuw %"class.Ipopt::SymTMatrix", ptr %16, i32 0, i32 2
  %65 = load ptr, ptr %64, align 8, !tbaa !31
  %66 = load i32, ptr %15, align 4, !tbaa !46
  %67 = sext i32 %66 to i64
  %68 = getelementptr inbounds double, ptr %65, i64 %67
  %69 = load double, ptr %68, align 8, !tbaa !38
  %70 = load i32, ptr %15, align 4, !tbaa !46
  %71 = load ptr, ptr %46, align 8, !tbaa !10
  %72 = getelementptr inbounds ptr, ptr %71, i64 4
  %73 = load ptr, ptr %72, align 8
  call void (ptr, i32, i32, i32, ptr, ...) %73(ptr noundef nonnull align 8 dereferenceable(40) %46, i32 noundef %47, i32 noundef %48, i32 noundef %49, ptr noundef @.str.2, ptr noundef %51, ptr noundef %53, i32 noundef %58, i32 noundef %63, double noundef %69, i32 noundef %70)
  br label %74

74:                                               ; preds = %45
  %75 = load i32, ptr %15, align 4, !tbaa !46
  %76 = add nsw i32 %75, 1
  store i32 %76, ptr %15, align 4, !tbaa !46
  br label %40, !llvm.loop !76

77:                                               ; preds = %44
  br label %88

78:                                               ; preds = %7
  %79 = load ptr, ptr %9, align 8, !tbaa !68
  %80 = load i32, ptr %10, align 4, !tbaa !70
  %81 = load i32, ptr %11, align 4, !tbaa !72
  %82 = load i32, ptr %13, align 4, !tbaa !46
  %83 = load ptr, ptr %14, align 8, !tbaa !74
  %84 = call noundef ptr @_ZNKSt7__cxx1112basic_stringIcSt11char_traitsIcESaIcEE5c_strEv(ptr noundef nonnull align 8 dereferenceable(32) %83) #13
  %85 = load ptr, ptr %79, align 8, !tbaa !10
  %86 = getelementptr inbounds ptr, ptr %85, i64 4
  %87 = load ptr, ptr %86, align 8
  call void (ptr, i32, i32, i32, ptr, ...) %87(ptr noundef nonnull align 8 dereferenceable(40) %79, i32 noundef %80, i32 noundef %81, i32 noundef %82, ptr noundef @.str.3, ptr noundef %84)
  br label %88

88:                                               ; preds = %78, %77
  ret void
}