; Function Attrs: mustprogress uwtable
define void @_ZNK5Ipopt10SymTMatrix9PrintImplERKNS_10JournalistENS_13EJournalLevelENS_16EJournalCategoryERKNSt7__cxx1112basic_stringIcSt11char_traitsIcESaIcEEEiSD_(ptr noundef nonnull readonly align 8 captures(none) dereferenceable(97) %0, ptr noundef nonnull align 8 dereferenceable(40) %1, i32 noundef %2, i32 noundef %3, ptr noundef nonnull readonly align 8 captures(none) dereferenceable(32) %4, i32 noundef %5, ptr noundef nonnull readonly align 8 captures(none) dereferenceable(32) %6) unnamed_addr #0 align 2 personality ptr @__gxx_personality_v0 {
  %8 = load ptr, ptr %1, align 8, !tbaa !8
  %9 = getelementptr inbounds nuw i8, ptr %8, i64 16
  %10 = load ptr, ptr %9, align 8
  tail call void (ptr, i32, i32, ptr, ...) %10(ptr noundef nonnull align 8 dereferenceable(40) %1, i32 noundef %2, i32 noundef %3, ptr noundef nonnull @.str)
  %11 = load ptr, ptr %6, align 8, !tbaa !66
  %12 = load ptr, ptr %4, align 8, !tbaa !66
  %13 = getelementptr inbounds nuw i8, ptr %0, i64 72
  %14 = load ptr, ptr %13, align 8, !tbaa !25
  %15 = getelementptr inbounds nuw i8, ptr %14, i64 12
  %16 = load i32, ptr %15, align 4, !tbaa !64
  %17 = getelementptr inbounds nuw i8, ptr %0, i64 80
  %18 = load ptr, ptr %17, align 8, !tbaa !28
  %19 = getelementptr inbounds nuw i8, ptr %18, i64 20
  %20 = load i32, ptr %19, align 4, !tbaa !34
  %21 = load ptr, ptr %1, align 8, !tbaa !8
  %22 = getelementptr inbounds nuw i8, ptr %21, i64 32
  %23 = load ptr, ptr %22, align 8
  tail call void (ptr, i32, i32, i32, ptr, ...) %23(ptr noundef nonnull align 8 dereferenceable(40) %1, i32 noundef %2, i32 noundef %3, i32 noundef %5, ptr noundef nonnull @.str.1, ptr noundef %11, ptr noundef %12, i32 noundef %16, i32 noundef %20)
  %24 = getelementptr inbounds nuw i8, ptr %0, i64 96
  %25 = load i8, ptr %24, align 8, !tbaa !33, !range !50, !noundef !51
  %26 = trunc nuw i8 %25 to i1
  br i1 %26, label %.preheader, label %56

.preheader:                                       ; preds = %7
  %27 = load ptr, ptr %17, align 8, !tbaa !28
  %28 = getelementptr inbounds nuw i8, ptr %27, i64 20
  %29 = load i32, ptr %28, align 4, !tbaa !34
  %30 = icmp sgt i32 %29, 0
  br i1 %30, label %.lr.ph, label %.loopexit

.lr.ph:                                           ; preds = %.preheader
  %31 = getelementptr inbounds nuw i8, ptr %0, i64 88
  br label %32

32:                                               ; preds = %.lr.ph, %32
  %indvars.iv = phi i64 [ 0, %.lr.ph ], [ %indvars.iv.next, %32 ]
  %33 = phi ptr [ %27, %.lr.ph ], [ %51, %32 ]
  %34 = load ptr, ptr %6, align 8, !tbaa !66
  %35 = load ptr, ptr %4, align 8, !tbaa !66
  %36 = getelementptr inbounds nuw i8, ptr %33, i64 24
  %37 = load ptr, ptr %36, align 8, !tbaa !39
  %38 = getelementptr inbounds nuw i32, ptr %37, i64 %indvars.iv
  %39 = load i32, ptr %38, align 4, !tbaa !59
  %40 = getelementptr inbounds nuw i8, ptr %33, i64 32
  %41 = load ptr, ptr %40, align 8, !tbaa !40
  %42 = getelementptr inbounds nuw i32, ptr %41, i64 %indvars.iv
  %43 = load i32, ptr %42, align 4, !tbaa !59
  %44 = load ptr, ptr %31, align 8, !tbaa !32
  %45 = getelementptr inbounds nuw double, ptr %44, i64 %indvars.iv
  %46 = load double, ptr %45, align 8, !tbaa !58
  %47 = load ptr, ptr %1, align 8, !tbaa !8
  %48 = getelementptr inbounds nuw i8, ptr %47, i64 32
  %49 = load ptr, ptr %48, align 8
  %50 = trunc nuw nsw i64 %indvars.iv to i32
  tail call void (ptr, i32, i32, i32, ptr, ...) %49(ptr noundef nonnull align 8 dereferenceable(40) %1, i32 noundef %2, i32 noundef %3, i32 noundef %5, ptr noundef nonnull @.str.2, ptr noundef %34, ptr noundef %35, i32 noundef %39, i32 noundef %43, double noundef %46, i32 noundef %50)
  %indvars.iv.next = add nuw nsw i64 %indvars.iv, 1
  %51 = load ptr, ptr %17, align 8, !tbaa !28
  %52 = getelementptr inbounds nuw i8, ptr %51, i64 20
  %53 = load i32, ptr %52, align 4, !tbaa !34
  %54 = sext i32 %53 to i64
  %55 = icmp slt i64 %indvars.iv.next, %54
  br i1 %55, label %32, label %.loopexit, !llvm.loop !71

56:                                               ; preds = %7
  %57 = load ptr, ptr %6, align 8, !tbaa !66
  %58 = load ptr, ptr %1, align 8, !tbaa !8
  %59 = getelementptr inbounds nuw i8, ptr %58, i64 32
  %60 = load ptr, ptr %59, align 8
  tail call void (ptr, i32, i32, i32, ptr, ...) %60(ptr noundef nonnull align 8 dereferenceable(40) %1, i32 noundef %2, i32 noundef %3, i32 noundef %5, ptr noundef nonnull @.str.3, ptr noundef %57)
  br label %.loopexit

.loopexit:                                        ; preds = %32, %.preheader, %56
  ret void
}